target datalayout = "e-m:e-p270:32:32-p271:32:32-p272:64:64-i64:64-i128:128-f80:128-n8:16:32:64-S128"
target triple = "x86_64-pc-linux-gnu"

%struct.MemoizeState = type { %struct.ScanState, i32, i32, ptr, ptr, ptr, ptr, ptr, ptr, ptr, ptr, i64, i64, ptr, %struct.dlist_head, ptr, ptr, i8, i8, %struct.MemoizeInstrumentation, ptr, ptr }
%struct.ScanState = type { %struct.PlanState, ptr, ptr, ptr }
%struct.PlanState = type { i32, ptr, ptr, ptr, ptr, ptr, ptr, ptr, ptr, ptr, ptr, ptr, ptr, ptr, ptr, ptr, ptr, ptr, i8, ptr, ptr, ptr, ptr, ptr, i8, i8, i8, i8, i8, i8, i8, i8 }
%struct.dlist_head = type { %struct.dlist_node }
%struct.dlist_node = type { ptr, ptr }
%struct.MemoizeInstrumentation = type { i64, i64, i64, i64, i64 }
%struct.ExprContext = type { i32, ptr, ptr, ptr, ptr, ptr, ptr, ptr, ptr, ptr, i64, i8, i64, i8, ptr, ptr, ptr, ptr }
%struct.TupleTableSlot = type { i32, i16, i16, ptr, ptr, ptr, ptr, ptr, %struct.ItemPointerData, i32 }
%struct.ItemPointerData = type { %struct.BlockIdData, i16 }
%struct.BlockIdData = type { i16, i16 }
%struct.memoize_hash = type { i64, i32, i32, i32, ptr, ptr, ptr }
%struct.MemoizeKey = type { ptr, %struct.dlist_node }
%struct.ExprState = type { i32, i8, i8, i64, ptr, ptr, ptr, ptr, ptr, i32, i32, ptr, ptr, ptr, ptr, ptr, ptr, ptr }
%struct.TupleDescData = type { i32, i32, i32, i32, ptr, [0 x %struct.CompactAttribute] }
%struct.CompactAttribute = type { i32, i16, i8, i8, i8, i8, i8, i8, i8 }

@CurrentMemoryContext = external global ptr, align 8

; Function Attrs: inlinehint nounwind uwtable
define internal zeroext i1 @DatumGetBool(i64 noundef %0) #2 {
  %2 = alloca i64, align 8
  store i64 %0, ptr %2, align 8
  %3 = load i64, ptr %2, align 8
  %4 = icmp ne i64 %3, 0
  ret i1 %4
}

; Function Attrs: inlinehint nounwind uwtable
define internal i64 @ExecEvalExprSwitchContext(ptr noundef %0, ptr noundef %1, ptr noundef %2) #2 {
  %4 = alloca ptr, align 8
  %5 = alloca ptr, align 8
  %6 = alloca ptr, align 8
  %7 = alloca i64, align 8
  %8 = alloca ptr, align 8
  store ptr %0, ptr %4, align 8
  store ptr %1, ptr %5, align 8
  store ptr %2, ptr %6, align 8
  call void @llvm.lifetime.start.p0(i64 8, ptr %7) #9
  call void @llvm.lifetime.start.p0(i64 8, ptr %8) #9
  %9 = load ptr, ptr %5, align 8
  %10 = getelementptr inbounds nuw %struct.ExprContext, ptr %9, i32 0, i32 5
  %11 = load ptr, ptr %10, align 8
  %12 = call ptr @MemoryContextSwitchTo(ptr noundef %11)
  store ptr %12, ptr %8, align 8
  %13 = load ptr, ptr %4, align 8
  %14 = getelementptr inbounds nuw %struct.ExprState, ptr %13, i32 0, i32 6
  %15 = load ptr, ptr %14, align 8
  %16 = load ptr, ptr %4, align 8
  %17 = load ptr, ptr %5, align 8
  %18 = load ptr, ptr %6, align 8
  %19 = call i64 %15(ptr noundef %16, ptr noundef %17, ptr noundef %18)
  store i64 %19, ptr %7, align 8
  %20 = load ptr, ptr %8, align 8
  %21 = call ptr @MemoryContextSwitchTo(ptr noundef %20)
  %22 = load i64, ptr %7, align 8
  call void @llvm.lifetime.end.p0(i64 8, ptr %8) #9
  call void @llvm.lifetime.end.p0(i64 8, ptr %7) #9
  ret i64 %22
}

; Function Attrs: inlinehint nounwind uwtable
define internal void @slot_getsomeattrs(ptr noundef %0, i32 noundef %1) #2 {
  %3 = alloca ptr, align 8
  %4 = alloca i32, align 4
  store ptr %0, ptr %3, align 8
  store i32 %1, ptr %4, align 4
  %5 = load ptr, ptr %3, align 8
  %6 = getelementptr inbounds nuw %struct.TupleTableSlot, ptr %5, i32 0, i32 2
  %7 = load i16, ptr %6, align 2
  %8 = sext i16 %7 to i32
  %9 = load i32, ptr %4, align 4
  %10 = icmp slt i32 %8, %9
  br i1 %10, label %11, label %14

11:                                               ; preds = %2
  %12 = load ptr, ptr %3, align 8
  %13 = load i32, ptr %4, align 4
  call void @slot_getsomeattrs_int(ptr noundef %12, i32 noundef %13)
  br label %14

14:                                               ; preds = %11, %2
  ret void
}

; Function Attrs: inlinehint nounwind uwtable
define internal zeroext i1 @ExecQual(ptr noundef %0, ptr noundef %1) #2 {
  %3 = alloca i1, align 1
  %4 = alloca ptr, align 8
  %5 = alloca ptr, align 8
  %6 = alloca i64, align 8
  %7 = alloca i8, align 1
  %8 = alloca i32, align 4
  store ptr %0, ptr %4, align 8
  store ptr %1, ptr %5, align 8
  call void @llvm.lifetime.start.p0(i64 8, ptr %6) #9
  call void @llvm.lifetime.start.p0(i64 1, ptr %7) #9
  %9 = load ptr, ptr %4, align 8
  %10 = icmp eq ptr %9, null
  br i1 %10, label %11, label %12

11:                                               ; preds = %2
  store i1 true, ptr %3, align 1
  store i32 1, ptr %8, align 4
  br label %18

12:                                               ; preds = %2
  %13 = load ptr, ptr %4, align 8
  %14 = load ptr, ptr %5, align 8
  %15 = call i64 @ExecEvalExprSwitchContext(ptr noundef %13, ptr noundef %14, ptr noundef %7)
  store i64 %15, ptr %6, align 8
  %16 = load i64, ptr %6, align 8
  %17 = call zeroext i1 @DatumGetBool(i64 noundef %16)
  store i1 %17, ptr %3, align 1
  store i32 1, ptr %8, align 4
  br label %18

18:                                               ; preds = %12, %11
  call void @llvm.lifetime.end.p0(i64 1, ptr %7) #9
  call void @llvm.lifetime.end.p0(i64 8, ptr %6) #9
  %19 = load i1, ptr %3, align 1
  ret i1 %19
}

; Function Attrs: inlinehint nounwind uwtable
define internal ptr @TupleDescCompactAttr(ptr noundef %0, i32 noundef %1) #2 {
  %3 = alloca ptr, align 8
  %4 = alloca i32, align 4
  %5 = alloca ptr, align 8
  store ptr %0, ptr %3, align 8
  store i32 %1, ptr %4, align 4
  call void @llvm.lifetime.start.p0(i64 8, ptr %5) #9
  %6 = load ptr, ptr %3, align 8
  %7 = getelementptr inbounds nuw %struct.TupleDescData, ptr %6, i32 0, i32 5
  %8 = load i32, ptr %4, align 4
  %9 = sext i32 %8 to i64
  %10 = getelementptr inbounds [0 x %struct.CompactAttribute], ptr %7, i64 0, i64 %9
  store ptr %10, ptr %5, align 8
  %11 = load ptr, ptr %5, align 8
  call void @llvm.lifetime.end.p0(i64 8, ptr %5) #9
  ret ptr %11
}

; Function Attrs: inlinehint nounwind uwtable
define internal void @slot_getallattrs(ptr noundef %0) #2 {
  %2 = alloca ptr, align 8
  store ptr %0, ptr %2, align 8
  %3 = load ptr, ptr %2, align 8
  %4 = load ptr, ptr %2, align 8
  %5 = getelementptr inbounds nuw %struct.TupleTableSlot, ptr %4, i32 0, i32 4
  %6 = load ptr, ptr %5, align 8
  %7 = getelementptr inbounds nuw %struct.TupleDescData, ptr %6, i32 0, i32 0
  %8 = load i32, ptr %7, align 8
  call void @slot_getsomeattrs(ptr noundef %3, i32 noundef %8)
  ret void
}

; Function Attrs: inlinehint nounwind uwtable
define internal ptr @MemoryContextSwitchTo(ptr noundef %0) #2 {
  %2 = alloca ptr, align 8
  %3 = alloca ptr, align 8
  store ptr %0, ptr %2, align 8
  call void @llvm.lifetime.start.p0(i64 8, ptr %3) #9
  %4 = load ptr, ptr @CurrentMemoryContext, align 8
  store ptr %4, ptr %3, align 8
  %5 = load ptr, ptr %2, align 8
  store ptr %5, ptr @CurrentMemoryContext, align 8
  %6 = load ptr, ptr %3, align 8
  call void @llvm.lifetime.end.p0(i64 8, ptr %3) #9
  ret ptr %6
}

; Function Attrs: nounwind uwtable
define internal zeroext i1 @MemoizeHash_equal(ptr noundef %0, ptr noundef %1, ptr noundef %2) #0 {
  %4 = alloca i1, align 1
  %5 = alloca ptr, align 8
  %6 = alloca ptr, align 8
  %7 = alloca ptr, align 8
  %8 = alloca ptr, align 8
  %9 = alloca ptr, align 8
  %10 = alloca ptr, align 8
  %11 = alloca ptr, align 8
  %12 = alloca ptr, align 8
  %13 = alloca i32, align 4
  %14 = alloca i8, align 1
  %15 = alloca i32, align 4
  %16 = alloca i32, align 4
  %17 = alloca ptr, align 8
  store ptr %0, ptr %5, align 8
  store ptr %1, ptr %6, align 8
  store ptr %2, ptr %7, align 8
  call void @llvm.lifetime.start.p0(i64 8, ptr %8) #9
  %18 = load ptr, ptr %5, align 8
  %19 = getelementptr inbounds nuw %struct.memoize_hash, ptr %18, i32 0, i32 6
  %20 = load ptr, ptr %19, align 8
  store ptr %20, ptr %8, align 8
  call void @llvm.lifetime.start.p0(i64 8, ptr %9) #9
  %21 = load ptr, ptr %8, align 8
  %22 = getelementptr inbounds nuw %struct.MemoizeState, ptr %21, i32 0, i32 0
  %23 = getelementptr inbounds nuw %struct.ScanState, ptr %22, i32 0, i32 0
  %24 = getelementptr inbounds nuw %struct.PlanState, ptr %23, i32 0, i32 16
  %25 = load ptr, ptr %24, align 8
  store ptr %25, ptr %9, align 8
  call void @llvm.lifetime.start.p0(i64 8, ptr %10) #9
  %26 = load ptr, ptr %8, align 8
  %27 = getelementptr inbounds nuw %struct.MemoizeState, ptr %26, i32 0, i32 5
  %28 = load ptr, ptr %27, align 8
  store ptr %28, ptr %10, align 8
  call void @llvm.lifetime.start.p0(i64 8, ptr %11) #9
  %29 = load ptr, ptr %8, align 8
  %30 = getelementptr inbounds nuw %struct.MemoizeState, ptr %29, i32 0, i32 6
  %31 = load ptr, ptr %30, align 8
  store ptr %31, ptr %11, align 8
  %32 = load ptr, ptr %6, align 8
  %33 = getelementptr inbounds nuw %struct.MemoizeKey, ptr %32, i32 0, i32 0
  %34 = load ptr, ptr %33, align 8
  %35 = load ptr, ptr %10, align 8
  %36 = call ptr @ExecStoreMinimalTuple(ptr noundef %34, ptr noundef %35, i1 noundef zeroext false)
  %37 = load ptr, ptr %8, align 8
  %38 = getelementptr inbounds nuw %struct.MemoizeState, ptr %37, i32 0, i32 18
  %39 = load i8, ptr %38, align 1, !range !6, !noundef !7
  %40 = trunc i8 %39 to i1
  br i1 %40, label %41, label %130

41:                                               ; preds = %3
  call void @llvm.lifetime.start.p0(i64 8, ptr %12) #9
  call void @llvm.lifetime.start.p0(i64 4, ptr %13) #9
  %42 = load ptr, ptr %8, align 8
  %43 = getelementptr inbounds nuw %struct.MemoizeState, ptr %42, i32 0, i32 2
  %44 = load i32, ptr %43, align 4
  store i32 %44, ptr %13, align 4
  call void @llvm.lifetime.start.p0(i64 1, ptr %14) #9
  store i8 1, ptr %14, align 1
  %45 = load ptr, ptr %9, align 8
  %46 = getelementptr inbounds nuw %struct.ExprContext, ptr %45, i32 0, i32 5
  %47 = load ptr, ptr %46, align 8
  %48 = call ptr @MemoryContextSwitchTo(ptr noundef %47)
  store ptr %48, ptr %12, align 8
  %49 = load ptr, ptr %10, align 8
  call void @slot_getallattrs(ptr noundef %49)
  %50 = load ptr, ptr %11, align 8
  call void @slot_getallattrs(ptr noundef %50)
  call void @llvm.lifetime.start.p0(i64 4, ptr %15) #9
  store i32 0, ptr %15, align 4
  br label %51

51:                                               ; preds = %121, %41
  %52 = load i32, ptr %15, align 4
  %53 = load i32, ptr %13, align 4
  %54 = icmp slt i32 %52, %53
  br i1 %54, label %56, label %55

55:                                               ; preds = %51
  store i32 2, ptr %16, align 4
  br label %124

56:                                               ; preds = %51
  call void @llvm.lifetime.start.p0(i64 8, ptr %17) #9
  %57 = load ptr, ptr %10, align 8
  %58 = getelementptr inbounds nuw %struct.TupleTableSlot, ptr %57, i32 0, i32 6
  %59 = load ptr, ptr %58, align 8
  %60 = load i32, ptr %15, align 4
  %61 = sext i32 %60 to i64
  %62 = getelementptr inbounds i8, ptr %59, i64 %61
  %63 = load i8, ptr %62, align 1, !range !6, !noundef !7
  %64 = trunc i8 %63 to i1
  %65 = zext i1 %64 to i32
  %66 = load ptr, ptr %11, align 8
  %67 = getelementptr inbounds nuw %struct.TupleTableSlot, ptr %66, i32 0, i32 6
  %68 = load ptr, ptr %67, align 8
  %69 = load i32, ptr %15, align 4
  %70 = sext i32 %69 to i64
  %71 = getelementptr inbounds i8, ptr %68, i64 %70
  %72 = load i8, ptr %71, align 1, !range !6, !noundef !7
  %73 = trunc i8 %72 to i1
  %74 = zext i1 %73 to i32
  %75 = icmp ne i32 %65, %74
  br i1 %75, label %76, label %77

76:                                               ; preds = %56
  store i8 0, ptr %14, align 1
  store i32 2, ptr %16, align 4
  br label %118

77:                                               ; preds = %56
  %78 = load ptr, ptr %10, align 8
  %79 = getelementptr inbounds nuw %struct.TupleTableSlot, ptr %78, i32 0, i32 6
  %80 = load ptr, ptr %79, align 8
  %81 = load i32, ptr %15, align 4
  %82 = sext i32 %81 to i64
  %83 = getelementptr inbounds i8, ptr %80, i64 %82
  %84 = load i8, ptr %83, align 1, !range !6, !noundef !7
  %85 = trunc i8 %84 to i1
  br i1 %85, label %86, label %87

86:                                               ; preds = %77
  store i32 4, ptr %16, align 4
  br label %118

87:                                               ; preds = %77
  %88 = load ptr, ptr %10, align 8
  %89 = getelementptr inbounds nuw %struct.TupleTableSlot, ptr %88, i32 0, i32 4
  %90 = load ptr, ptr %89, align 8
  %91 = load i32, ptr %15, align 4
  %92 = call ptr @TupleDescCompactAttr(ptr noundef %90, i32 noundef %91)
  store ptr %92, ptr %17, align 8
  %93 = load ptr, ptr %10, align 8
  %94 = getelementptr inbounds nuw %struct.TupleTableSlot, ptr %93, i32 0, i32 5
  %95 = load ptr, ptr %94, align 8
  %96 = load i32, ptr %15, align 4
  %97 = sext i32 %96 to i64
  %98 = getelementptr inbounds i64, ptr %95, i64 %97
  %99 = load i64, ptr %98, align 8
  %100 = load ptr, ptr %11, align 8
  %101 = getelementptr inbounds nuw %struct.TupleTableSlot, ptr %100, i32 0, i32 5
  %102 = load ptr, ptr %101, align 8
  %103 = load i32, ptr %15, align 4
  %104 = sext i32 %103 to i64
  %105 = getelementptr inbounds i64, ptr %102, i64 %104
  %106 = load i64, ptr %105, align 8
  %107 = load ptr, ptr %17, align 8
  %108 = getelementptr inbounds nuw %struct.CompactAttribute, ptr %107, i32 0, i32 2
  %109 = load i8, ptr %108, align 2, !range !6, !noundef !7
  %110 = trunc i8 %109 to i1
  %111 = load ptr, ptr %17, align 8
  %112 = getelementptr inbounds nuw %struct.CompactAttribute, ptr %111, i32 0, i32 1
  %113 = load i16, ptr %112, align 4
  %114 = sext i16 %113 to i32
  %115 = call zeroext i1 @datum_image_eq(i64 noundef %99, i64 noundef %106, i1 noundef zeroext %110, i32 noundef %114)
  br i1 %115, label %117, label %116

116:                                              ; preds = %87
  store i8 0, ptr %14, align 1
  store i32 2, ptr %16, align 4
  br label %118

117:                                              ; preds = %87
  store i32 0, ptr %16, align 4
  br label %118

118:                                              ; preds = %117, %116, %86, %76
  call void @llvm.lifetime.end.p0(i64 8, ptr %17) #9
  %119 = load i32, ptr %16, align 4
  switch i32 %119, label %124 [
    i32 0, label %120
    i32 4, label %121
  ]

120:                                              ; preds = %118
  br label %121

121:                                              ; preds = %120, %118
  %122 = load i32, ptr %15, align 4
  %123 = add i32 %122, 1
  store i32 %123, ptr %15, align 4
  br label %51, !llvm.loop !16

124:                                              ; preds = %118, %55
  call void @llvm.lifetime.end.p0(i64 4, ptr %15) #9
  br label %125

125:                                              ; preds = %124
  %126 = load ptr, ptr %12, align 8
  %127 = call ptr @MemoryContextSwitchTo(ptr noundef %126)
  %128 = load i8, ptr %14, align 1, !range !6, !noundef !7
  %129 = trunc i8 %128 to i1
  store i1 %129, ptr %4, align 1
  store i32 1, ptr %16, align 4
  call void @llvm.lifetime.end.p0(i64 1, ptr %14) #9
  call void @llvm.lifetime.end.p0(i64 4, ptr %13) #9
  call void @llvm.lifetime.end.p0(i64 8, ptr %12) #9
  br label %142

130:                                              ; preds = %3
  %131 = load ptr, ptr %10, align 8
  %132 = load ptr, ptr %9, align 8
  %133 = getelementptr inbounds nuw %struct.ExprContext, ptr %132, i32 0, i32 2
  store ptr %131, ptr %133, align 8
  %134 = load ptr, ptr %11, align 8
  %135 = load ptr, ptr %9, align 8
  %136 = getelementptr inbounds nuw %struct.ExprContext, ptr %135, i32 0, i32 3
  store ptr %134, ptr %136, align 8
  %137 = load ptr, ptr %8, align 8
  %138 = getelementptr inbounds nuw %struct.MemoizeState, ptr %137, i32 0, i32 7
  %139 = load ptr, ptr %138, align 8
  %140 = load ptr, ptr %9, align 8
  %141 = call zeroext i1 @ExecQual(ptr noundef %139, ptr noundef %140)
  store i1 %141, ptr %4, align 1
  store i32 1, ptr %16, align 4
  br label %142

142:                                              ; preds = %130, %125
  call void @llvm.lifetime.end.p0(i64 8, ptr %11) #9
  call void @llvm.lifetime.end.p0(i64 8, ptr %10) #9
  call void @llvm.lifetime.end.p0(i64 8, ptr %9) #9
  call void @llvm.lifetime.end.p0(i64 8, ptr %8) #9
  %143 = load i1, ptr %4, align 1
  ret i1 %143
}