; Function Attrs: nounwind uwtable
define internal fastcc zeroext i1 @MemoizeHash_equal(ptr readonly captures(none) %.40.val, ptr %.0.val) unnamed_addr #0 {
  %1 = alloca i8, align 1
  %2 = getelementptr inbounds nuw i8, ptr %.40.val, i64 128
  %3 = load ptr, ptr %2, align 8
  %4 = getelementptr inbounds nuw i8, ptr %.40.val, i64 248
  %5 = load ptr, ptr %4, align 8
  %6 = getelementptr inbounds nuw i8, ptr %.40.val, i64 256
  %7 = load ptr, ptr %6, align 8
  %8 = tail call ptr @ExecStoreMinimalTuple(ptr noundef %.0.val, ptr noundef %5, i1 noundef zeroext false) #11
  %9 = getelementptr inbounds nuw i8, ptr %.40.val, i64 353
  %10 = load i8, ptr %9, align 1, !range !6, !noundef !7
  %11 = trunc nuw i8 %10 to i1
  br i1 %11, label %12, label %65

12:                                               ; preds = %0
  %13 = getelementptr inbounds nuw i8, ptr %.40.val, i64 228
  %14 = load i32, ptr %13, align 4
  %15 = getelementptr inbounds nuw i8, ptr %3, i64 40
  %16 = load ptr, ptr %15, align 8
  %17 = load ptr, ptr @CurrentMemoryContext, align 8
  store ptr %16, ptr @CurrentMemoryContext, align 8
  %18 = getelementptr inbounds nuw i8, ptr %5, i64 16
  %19 = load ptr, ptr %18, align 8
  %20 = load i32, ptr %19, align 8
  %21 = getelementptr inbounds nuw i8, ptr %5, i64 6
  %22 = load i16, ptr %21, align 2
  %23 = sext i16 %22 to i32
  %24 = icmp sgt i32 %20, %23
  br i1 %24, label %25, label %slot_getallattrs.exit

25:                                               ; preds = %12
  tail call void @slot_getsomeattrs_int(ptr noundef nonnull %5, i32 noundef %20) #11
  br label %slot_getallattrs.exit

slot_getallattrs.exit:                            ; preds = %12, %25
  %26 = getelementptr inbounds nuw i8, ptr %7, i64 16
  %27 = load ptr, ptr %26, align 8
  %28 = load i32, ptr %27, align 8
  %29 = getelementptr inbounds nuw i8, ptr %7, i64 6
  %30 = load i16, ptr %29, align 2
  %31 = sext i16 %30 to i32
  %32 = icmp sgt i32 %28, %31
  br i1 %32, label %33, label %slot_getallattrs.exit40

33:                                               ; preds = %slot_getallattrs.exit
  tail call void @slot_getsomeattrs_int(ptr noundef nonnull %7, i32 noundef %28) #11
  br label %slot_getallattrs.exit40

slot_getallattrs.exit40:                          ; preds = %slot_getallattrs.exit, %33
  %34 = getelementptr inbounds nuw i8, ptr %5, i64 32
  %35 = icmp slt i32 %14, 1
  br i1 %35, label %.thread, label %.lr.ph

.lr.ph:                                           ; preds = %slot_getallattrs.exit40
  %36 = getelementptr inbounds nuw i8, ptr %7, i64 32
  %37 = getelementptr inbounds nuw i8, ptr %5, i64 24
  %38 = getelementptr inbounds nuw i8, ptr %7, i64 24
  %wide.trip.count = zext nneg i32 %14 to i64
  br label %39

39:                                               ; preds = %.lr.ph, %select.unfold
  %indvars.iv = phi i64 [ 0, %.lr.ph ], [ %indvars.iv.next, %select.unfold ]
  %40 = load ptr, ptr %34, align 8
  %41 = getelementptr inbounds nuw i8, ptr %40, i64 %indvars.iv
  %42 = load i8, ptr %41, align 1, !range !6, !noundef !7
  %43 = load ptr, ptr %36, align 8
  %44 = getelementptr inbounds nuw i8, ptr %43, i64 %indvars.iv
  %45 = load i8, ptr %44, align 1, !range !6, !noundef !7
  %.not = icmp eq i8 %42, %45
  br i1 %.not, label %46, label %.thread

46:                                               ; preds = %39
  %47 = trunc nuw i8 %42 to i1
  br i1 %47, label %select.unfold, label %48

48:                                               ; preds = %46
  %49 = load ptr, ptr %18, align 8
  %50 = getelementptr inbounds nuw i8, ptr %49, i64 24
  %51 = getelementptr inbounds nuw [0 x %struct.CompactAttribute], ptr %50, i64 0, i64 %indvars.iv
  %52 = load ptr, ptr %37, align 8
  %53 = getelementptr inbounds nuw i64, ptr %52, i64 %indvars.iv
  %54 = load i64, ptr %53, align 8
  %55 = load ptr, ptr %38, align 8
  %56 = getelementptr inbounds nuw i64, ptr %55, i64 %indvars.iv
  %57 = load i64, ptr %56, align 8
  %58 = getelementptr inbounds nuw i8, ptr %51, i64 6
  %59 = load i8, ptr %58, align 2, !range !6, !noundef !7
  %60 = trunc nuw i8 %59 to i1
  %61 = getelementptr inbounds nuw i8, ptr %51, i64 4
  %62 = load i16, ptr %61, align 4
  %63 = sext i16 %62 to i32
  %64 = tail call zeroext i1 @datum_image_eq(i64 noundef %54, i64 noundef %57, i1 noundef zeroext %60, i32 noundef %63) #11
  br i1 %64, label %select.unfold, label %.thread

select.unfold:                                    ; preds = %48, %46
  %indvars.iv.next = add nuw nsw i64 %indvars.iv, 1
  %exitcond.not = icmp eq i64 %indvars.iv.next, %wide.trip.count
  br i1 %exitcond.not, label %.thread, label %39, !llvm.loop !13

.thread:                                          ; preds = %select.unfold, %39, %48, %slot_getallattrs.exit40
  %.lcssa = phi i1 [ true, %slot_getallattrs.exit40 ], [ false, %48 ], [ false, %39 ], [ true, %select.unfold ]
  store ptr %17, ptr @CurrentMemoryContext, align 8
  br label %79

65:                                               ; preds = %0
  %66 = getelementptr inbounds nuw i8, ptr %3, i64 16
  store ptr %5, ptr %66, align 8
  %67 = getelementptr inbounds nuw i8, ptr %3, i64 24
  store ptr %7, ptr %67, align 8
  %68 = getelementptr inbounds nuw i8, ptr %.40.val, i64 264
  %69 = load ptr, ptr %68, align 8
  call void @llvm.lifetime.start.p0(i64 1, ptr nonnull %1) #11
  %70 = icmp eq ptr %69, null
  br i1 %70, label %ExecQual.exit, label %71

71:                                               ; preds = %65
  %72 = getelementptr inbounds nuw i8, ptr %3, i64 40
  %73 = load ptr, ptr %72, align 8
  %74 = load ptr, ptr @CurrentMemoryContext, align 8
  store ptr %73, ptr @CurrentMemoryContext, align 8
  %75 = getelementptr inbounds nuw i8, ptr %69, i64 32
  %76 = load ptr, ptr %75, align 8
  %77 = call i64 %76(ptr noundef nonnull %69, ptr noundef nonnull %3, ptr noundef nonnull %1) #11
  store ptr %74, ptr @CurrentMemoryContext, align 8
  %78 = icmp ne i64 %77, 0
  br label %ExecQual.exit

ExecQual.exit:                                    ; preds = %65, %71
  %.0.i = phi i1 [ %78, %71 ], [ true, %65 ]
  call void @llvm.lifetime.end.p0(i64 1, ptr nonnull %1) #11
  br label %79

79:                                               ; preds = %ExecQual.exit, %.thread
  %.0 = phi i1 [ %.lcssa, %.thread ], [ %.0.i, %ExecQual.exit ]
  ret i1 %.0
}